(dp0
S'cookies'
p1
(dp2
S'wxloadtime'
p3
S'1498733362'
p4
sS'webwx_data_ticket'
p5
S'gSf2XyaAaNdnftUXNfxwtOtc'
p6
sS'wxuin'
p7
S'2966625951'
p8
sS'login_frequency'
p9
S'2'
p10
sS'MM_WX_NOTIFY_STATE'
p11
S'1'
p12
sS'MM_WX_SOUND_STATE'
p13
g12
sS'webwx_auth_ticket'
p14
S'CIsBENq3lf0DGoABzQEdwtvdaIGvtjOZOQYDhtcDaPKpNsXHNA8VYBJ67AfhpNO+m2TaloJGmzSME59yPMxubFYlcxKwwO4kukyyVhDBMPQHIXcH5ChNRkDytaZGvSCK0N8yMmVRW9DiMTxZoNJY2rOmveUYylhrdatNtYaPLpUUq6CpNCmV41DqOEM='
p15
sS'last_wxuin'
p16
S'2966625951'
p17
sS'webwxuvid'
p18
S'83a442d9bbda8450b4ac5f7beb0166fa625f3d77ee34ee5074d169c6e7fecb0774faa6e0f8d45e8f6b5c2908537cecc6'
p19
sS'wxpluginkey'
p20
S'1498107682_expired'
p21
sS'wxsid'
p22
S'uis1dIg5AgMBpa0Z'
p23
sS'mm_lang'
p24
S'zh_CN'
p25
ssS'version'
p26
S'1.3.4'
p27
sS'storage'
p28
(dp29
S'userName'
p30
V@9fff0dfb15c74333a7fb71567cf10858bda0b9cf7b753b04d9728b174aa50e6f
p31
sS'lastInputUserName'
p32
NsS'memberList'
p33
ccopy_reg
_reconstructor
p34
(citchat.storage.templates
ContactList
p35
c__builtin__
list
p36
(lp37
g34
(citchat.storage.templates
User
p38
c__builtin__
dict
p39
(dp40
S'UserName'
p41
g31
sS'City'
p42
S''
p43
sS'DisplayName'
p44
g43
sS'UniFriend'
p45
I0
sS'OwnerUin'
p46
I0
sS'MemberList'
p47
(lp48
sS'PYQuanPin'
p49
V
p50
sS'RemarkPYInitial'
p51
g50
sS'Uin'
p52
I2966625951
sS'AppAccountFlag'
p53
I0
sS'VerifyFlag'
p54
I0
sS'Province'
p55
g43
sS'KeyWord'
p56
g43
sS'RemarkName'
p57
g50
sS'PYInitial'
p58
g50
sS'ChatRoomId'
p59
I0
sS'HideInputBarFlag'
p60
I0
sVHeadImgFlag
p61
I1
sS'EncryChatRoomId'
p62
g43
sS'AttrStatus'
p63
I0
sS'SnsFlag'
p64
I0
sS'MemberCount'
p65
I0
sVWebWxPluginSwitch
p66
I0
sS'Alias'
p67
g43
sS'Signature'
p68
Vwww.KudosData.com
p69
sS'ContactFlag'
p70
I0
sS'NickName'
p71
V\u9177\u8c46\u966a\u804a\u59b9
p72
sS'RemarkPYQuanPin'
p73
g50
sS'HeadImgUrl'
p74
V/cgi-bin/mmwebwx-bin/webwxgeticon?seq=1177922890&username=@9fff0dfb15c74333a7fb71567cf10858bda0b9cf7b753b04d9728b174aa50e6f&skey=@crypt_936d9d3e_72ed00fb31660af57dbba92b17b362a2
p75
sS'Sex'
p76
I2
sS'StarFriend'
p77
I0
sS'Statues'
p78
I0
stp79
Rp80
I1
bag34
(g38
g39
(dp81
VUserName
p82
V@3ad9199a30ce80b9ab34e585c8552174
p83
sVCity
p84
g50
sVSnsFlag
p85
I49
sVDisplayName
p86
g50
sVUniFriend
p87
I0
sVMemberCount
p88
I0
sVOwnerUin
p89
I0
sVMemberList
p90
(lp91
sVAlias
p92
g50
sVPYQuanPin
p93
VRichardgulijian
p94
sVSignature
p95
g50
sVRemarkPYInitial
p96
VMRR
p97
sVContactFlag
p98
I257
sVUin
p99
I0
sVNickName
p100
VRichard \u987e\u674e\u5065
p101
sVAppAccountFlag
p102
I0
sVVerifyFlag
p103
I0
sVRemarkPYQuanPin
p104
VMrR
p105
sVHeadImgUrl
p106
V/cgi-bin/mmwebwx-bin/webwxgeticon?seq=637731039&username=@3ad9199a30ce80b9ab34e585c8552174&skey=@crypt_936d9d3e_72ed00fb31660af57dbba92b17b362a2
p107
sVKeyWord
p108
Va40
p109
sVProvince
p110
g50
sVPYInitial
p111
VRICHARDGLJ
p112
sVRemarkName
p113
VMr. R
p114
sVIsOwner
p115
I0
sVSex
p116
I1
sVStarFriend
p117
I0
sVHideInputBarFlag
p118
I0
sVChatRoomId
p119
I0
sVEncryChatRoomId
p120
g50
sVAttrStatus
p121
I71411815
sVStatues
p122
I0
stp123
Rp124
I1
bag34
(g38
g39
(dp125
VUserName
p126
V@ab6b8bd52fa509cc6a1ba4167a5b145e
p127
sVCity
p128
V\u6210\u90fd
p129
sVSnsFlag
p130
I49
sVDisplayName
p131
g50
sVUniFriend
p132
I0
sVMemberCount
p133
I0
sVOwnerUin
p134
I0
sVMemberList
p135
(lp136
sVAlias
p137
g50
sVPYQuanPin
p138
Vbaijie
p139
sVSignature
p140
g50
sVRemarkPYInitial
p141
VMRB
p142
sVContactFlag
p143
I1
sVUin
p144
I0
sVNickName
p145
V\u767d\u6770
p146
sVAppAccountFlag
p147
I0
sVVerifyFlag
p148
I0
sVRemarkPYQuanPin
p149
VMrB
p150
sVHeadImgUrl
p151
V/cgi-bin/mmwebwx-bin/webwxgeticon?seq=637732784&username=@ab6b8bd52fa509cc6a1ba4167a5b145e&skey=@crypt_936d9d3e_72ed00fb31660af57dbba92b17b362a2
p152
sVKeyWord
p153
Va34
p154
sVProvince
p155
V\u56db\u5ddd
p156
sVPYInitial
p157
VBJ
p158
sVRemarkName
p159
VMr. B
p160
sVIsOwner
p161
I0
sVSex
p162
I1
sVStarFriend
p163
I0
sVHideInputBarFlag
p164
I0
sVChatRoomId
p165
I0
sVEncryChatRoomId
p166
g50
sVAttrStatus
p167
I71401509
sVStatues
p168
I0
stp169
Rp170
I1
bag34
(g38
g39
(dp171
VUserName
p172
V@40904d72356ccf7fbd7abbf1ff431d6d
p173
sVCity
p174
g50
sVSnsFlag
p175
I49
sVDisplayName
p176
g50
sVUniFriend
p177
I0
sVMemberCount
p178
I0
sVOwnerUin
p179
I0
sVMemberList
p180
(lp181
sVAlias
p182
g50
sVPYQuanPin
p183
Vbaihei
p184
sVSignature
p185
g50
sVRemarkPYInitial
p186
g50
sVContactFlag
p187
I3
sVUin
p188
I0
sVNickName
p189
V\u767d\u9ed1
p190
sVAppAccountFlag
p191
I0
sVVerifyFlag
p192
I0
sVRemarkPYQuanPin
p193
g50
sVHeadImgUrl
p194
V/cgi-bin/mmwebwx-bin/webwxgeticon?seq=637730151&username=@40904d72356ccf7fbd7abbf1ff431d6d&skey=@crypt_936d9d3e_72ed00fb31660af57dbba92b17b362a2
p195
sVKeyWord
p196
VTel
p197
sVProvince
p198
VAuckland
p199
sVPYInitial
p200
VBH
p201
sVRemarkName
p202
g50
sVIsOwner
p203
I0
sVSex
p204
I1
sVStarFriend
p205
I0
sVHideInputBarFlag
p206
I0
sVChatRoomId
p207
I0
sVEncryChatRoomId
p208
g50
sVAttrStatus
p209
I100902845
sVStatues
p210
I0
stp211
Rp212
I1
bag34
(g38
g39
(dp213
VUserName
p214
V@5150135852a5a8ae3e9aa98ab2550d46
p215
sVCity
p216
g50
sVSnsFlag
p217
I17
sVDisplayName
p218
g50
sVUniFriend
p219
I0
sVMemberCount
p220
I0
sVOwnerUin
p221
I0
sVMemberList
p222
(lp223
sVAlias
p224
g50
sVPYQuanPin
p225
VDiesIrae
p226
sVSignature
p227
g50
sVRemarkPYInitial
p228
VMISSZ
p229
sVContactFlag
p230
I1
sVUin
p231
I0
sVNickName
p232
VDies.Irae
p233
sVAppAccountFlag
p234
I0
sVVerifyFlag
p235
I0
sVRemarkPYQuanPin
p236
VMissZ
p237
sVHeadImgUrl
p238
V/cgi-bin/mmwebwx-bin/webwxgeticon?seq=637735244&username=@5150135852a5a8ae3e9aa98ab2550d46&skey=@crypt_936d9d3e_72ed00fb31660af57dbba92b17b362a2
p239
sVKeyWord
p240
Vdie
p241
sVProvince
p242
g50
sVPYInitial
p243
VDIESIRAE
p244
sVRemarkName
p245
VMiss. Z
p246
sVIsOwner
p247
I0
sVSex
p248
I2
sVStarFriend
p249
I0
sVHideInputBarFlag
p250
I0
sVChatRoomId
p251
I0
sVEncryChatRoomId
p252
g50
sVAttrStatus
p253
I113511
sVStatues
p254
I0
stp255
Rp256
I1
batp257
Rp258
I1
bsS'chatroomList'
p259
g34
(g35
g36
(lp260
g34
(citchat.storage.templates
Chatroom
p261
g39
(dp262
VUserName
p263
V@@24eb553b34bedf376d67bd88ea884b722578058671697e26b00fb34e0a53aab4
p264
sVCity
p265
g50
sVDisplayName
p266
g50
sVUniFriend
p267
I0
sS'Self'
p268
g34
(g38
g39
(dp269
g41
g31
sg42
g43
sg44
g43
sg45
I0
sg46
I0
sg47
(lp270
sg49
g50
sg51
g50
sg52
I2966625951
sg53
I0
sg54
I0
sg55
g43
sg56
g43
sg57
g50
sg58
g50
sg59
I0
sg60
I0
sg61
I1
sg62
g43
sg63
I0
sg64
I0
sg65
I0
sg66
I0
sg67
g43
sg68
g69
sg70
I0
sg71
g72
sg73
g50
sg74
g75
sg76
I2
sg77
I0
sg78
I0
stp271
Rp272
I1
bsVMemberList
p273
g34
(g35
g36
(lp274
tp275
Rp276
I1
bsVPYQuanPin
p277
Vjiqizhinengheweixin
p278
sVRemarkPYInitial
p279
g50
sVSex
p280
I0
sVAppAccountFlag
p281
I0
sVVerifyFlag
p282
I0
sVProvince
p283
g50
sVKeyWord
p284
g50
sVRemarkName
p285
g50
sVPYInitial
p286
VJQZNHWX
p287
sVIsOwner
p288
I0
sVChatRoomId
p289
I0
sVHideInputBarFlag
p290
I0
sVEncryChatRoomId
p291
g50
sVAttrStatus
p292
I0
sVSnsFlag
p293
I0
sVMemberCount
p294
I17
sVOwnerUin
p295
I0
sVAlias
p296
g50
sS'IsAdmin'
p297
NsVSignature
p298
g50
sVContactFlag
p299
I3
sVNickName
p300
V\u673a\u5668\u667a\u80fd\u548c\u5fae\u4fe1
p301
sVRemarkPYQuanPin
p302
g50
sVHeadImgUrl
p303
V/cgi-bin/mmwebwx-bin/webwxgetheadimg?seq=637734672&username=@@24eb553b34bedf376d67bd88ea884b722578058671697e26b00fb34e0a53aab4&skey=@crypt_936d9d3e_72ed00fb31660af57dbba92b17b362a2
p304
sVUin
p305
I0
sVStarFriend
p306
I0
sVStatues
p307
I0
stp308
Rp309
I1
bag34
(g261
g39
(dp310
VUserName
p311
V@@f845c50bd94c4a09df136922beb5e86efc875b5c15acf46cef21e70d4d72bb94
p312
sVCity
p313
g50
sVDisplayName
p314
g50
sVUniFriend
p315
I0
sg268
g34
(g38
g39
(dp316
g41
g31
sg42
g43
sg44
g43
sg45
I0
sg46
I0
sg47
(lp317
sg49
g50
sg51
g50
sg52
I2966625951
sg53
I0
sg54
I0
sg55
g43
sg56
g43
sg57
g50
sg58
g50
sg59
I0
sg60
I0
sg61
I1
sg62
g43
sg63
I0
sg64
I0
sg65
I0
sg66
I0
sg67
g43
sg68
g69
sg70
I0
sg71
g72
sg73
g50
sg74
g75
sg76
I2
sg77
I0
sg78
I0
stp318
Rp319
I1
bsVMemberList
p320
g34
(g35
g36
(lp321
tp322
Rp323
I1
bsVPYQuanPin
p324
VkudoushujukexuefenxiangKudosDatacom
p325
sVRemarkPYInitial
p326
g50
sVSex
p327
I0
sVAppAccountFlag
p328
I0
sVVerifyFlag
p329
I0
sVProvince
p330
g50
sVKeyWord
p331
g50
sVRemarkName
p332
g50
sVPYInitial
p333
VKDSJKXFXKUDOSDATACOM
p334
sVIsOwner
p335
I0
sVChatRoomId
p336
I0
sVHideInputBarFlag
p337
I0
sVEncryChatRoomId
p338
g50
sVAttrStatus
p339
I0
sVSnsFlag
p340
I0
sVMemberCount
p341
I0
sVOwnerUin
p342
I0
sVAlias
p343
g50
sg297
NsVSignature
p344
g50
sVContactFlag
p345
I1
sVNickName
p346
V\u9177\u8c46\u6570\u636e\u79d1\u5b66\u5206\u4eab KudosData.com
p347
sVRemarkPYQuanPin
p348
g50
sVHeadImgUrl
p349
V/cgi-bin/mmwebwx-bin/webwxgetheadimg?seq=637730366&username=@@f845c50bd94c4a09df136922beb5e86efc875b5c15acf46cef21e70d4d72bb94&skey=@crypt_936d9d3e_72ed00fb31660af57dbba92b17b362a2
p350
sVUin
p351
I0
sVStarFriend
p352
I0
sVStatues
p353
I0
stp354
Rp355
I1
bag34
(g261
g39
(dp356
VUserName
p357
V@@c1a861f51fcef2a7cef982e17261f4d98d74b14156f4d7ecdc5c14bad35fbbb0
p358
sVCity
p359
g50
sVDisplayName
p360
g50
sVUniFriend
p361
I0
sg268
g34
(g38
g39
(dp362
g41
g31
sg42
g43
sg44
g43
sg45
I0
sg46
I0
sg47
(lp363
sg49
g50
sg51
g50
sg52
I2966625951
sg53
I0
sg54
I0
sg55
g43
sg56
g43
sg57
g50
sg58
g50
sg59
I0
sg60
I0
sg61
I1
sg62
g43
sg63
I0
sg64
I0
sg65
I0
sg66
I0
sg67
g43
sg68
g69
sg70
I0
sg71
g72
sg73
g50
sg74
g75
sg76
I2
sg77
I0
sg78
I0
stp364
Rp365
I1
bsVMemberList
p366
g34
(g35
g36
(lp367
tp368
Rp369
I1
bsVPYQuanPin
p370
VkudoupeiliaomeiUATX
p371
sVRemarkPYInitial
p372
g50
sVSex
p373
I0
sVAppAccountFlag
p374
I0
sVVerifyFlag
p375
I0
sVProvince
p376
g50
sVKeyWord
p377
g50
sVRemarkName
p378
g50
sVPYInitial
p379
VKDPLMUATX
p380
sVIsOwner
p381
I0
sVChatRoomId
p382
I0
sVHideInputBarFlag
p383
I0
sVEncryChatRoomId
p384
g50
sVAttrStatus
p385
I0
sVSnsFlag
p386
I0
sVMemberCount
p387
I0
sVOwnerUin
p388
I0
sVAlias
p389
g50
sg297
NsVSignature
p390
g50
sVContactFlag
p391
I1
sVNickName
p392
V\u9177\u8c46\u966a\u804a\u59b9UAT-X
p393
sVRemarkPYQuanPin
p394
g50
sVHeadImgUrl
p395
V/cgi-bin/mmwebwx-bin/webwxgetheadimg?seq=637733015&username=@@c1a861f51fcef2a7cef982e17261f4d98d74b14156f4d7ecdc5c14bad35fbbb0&skey=@crypt_936d9d3e_72ed00fb31660af57dbba92b17b362a2
p396
sVUin
p397
I0
sVStarFriend
p398
I0
sVStatues
p399
I0
stp400
Rp401
I1
bag34
(g261
g39
(dp402
VUserName
p403
V@@8d46045667856731514d5ee54c7044e7bd701cb4d047127155d4227a1ccd2642
p404
sVCity
p405
g50
sVDisplayName
p406
g50
sVUniFriend
p407
I0
sg268
g34
(g38
g39
(dp408
g41
g31
sg42
g43
sg44
g43
sg45
I0
sg46
I0
sg47
(lp409
sg49
g50
sg51
g50
sg52
I2966625951
sg53
I0
sg54
I0
sg55
g43
sg56
g43
sg57
g50
sg58
g50
sg59
I0
sg60
I0
sg61
I1
sg62
g43
sg63
I0
sg64
I0
sg65
I0
sg66
I0
sg67
g43
sg68
g69
sg70
I0
sg71
g72
sg73
g50
sg74
g75
sg76
I2
sg77
I0
sg78
I0
stp410
Rp411
I1
bsVMemberList
p412
g34
(g35
g36
(lp413
tp414
Rp415
I1
bsVPYQuanPin
p416
VkudoupeiliaomeiUATB
p417
sVRemarkPYInitial
p418
g50
sVSex
p419
I0
sVAppAccountFlag
p420
I0
sVVerifyFlag
p421
I0
sVProvince
p422
g50
sVKeyWord
p423
g50
sVRemarkName
p424
g50
sVPYInitial
p425
VKDPLMUATB
p426
sVIsOwner
p427
I0
sVChatRoomId
p428
I0
sVHideInputBarFlag
p429
I0
sVEncryChatRoomId
p430
g50
sVAttrStatus
p431
I0
sVSnsFlag
p432
I0
sVMemberCount
p433
I0
sVOwnerUin
p434
I0
sVAlias
p435
g50
sg297
NsVSignature
p436
g50
sVContactFlag
p437
I1
sVNickName
p438
V\u9177\u8c46\u966a\u804a\u59b9UAT-B
p439
sVRemarkPYQuanPin
p440
g50
sVHeadImgUrl
p441
V/cgi-bin/mmwebwx-bin/webwxgetheadimg?seq=637732693&username=@@8d46045667856731514d5ee54c7044e7bd701cb4d047127155d4227a1ccd2642&skey=@crypt_936d9d3e_72ed00fb31660af57dbba92b17b362a2
p442
sVUin
p443
I0
sVStarFriend
p444
I0
sVStatues
p445
I0
stp446
Rp447
I1
bag34
(g261
g39
(dp448
VUserName
p449
V@@b25719f7f1b05f80def7348466670f2ea6e8efa953750339b7a81843d3210bf1
p450
sVCity
p451
g50
sVDisplayName
p452
g50
sVUniFriend
p453
I0
sg268
g34
(g38
g39
(dp454
g41
g31
sg42
g43
sg44
g43
sg45
I0
sg46
I0
sg47
(lp455
sg49
g50
sg51
g50
sg52
I2966625951
sg53
I0
sg54
I0
sg55
g43
sg56
g43
sg57
g50
sg58
g50
sg59
I0
sg60
I0
sg61
I1
sg62
g43
sg63
I0
sg64
I0
sg65
I0
sg66
I0
sg67
g43
sg68
g69
sg70
I0
sg71
g72
sg73
g50
sg74
g75
sg76
I2
sg77
I0
sg78
I0
stp456
Rp457
I1
bsVMemberList
p458
g34
(g35
g36
(lp459
tp460
Rp461
I1
bsVPYQuanPin
p462
VAucklandDataScienceLovers
p463
sVRemarkPYInitial
p464
g50
sVSex
p465
I0
sVAppAccountFlag
p466
I0
sVVerifyFlag
p467
I0
sVProvince
p468
g50
sVKeyWord
p469
g50
sVRemarkName
p470
g50
sVPYInitial
p471
VAUCKLANDDATASCIENCELOVERS
p472
sVIsOwner
p473
I0
sVChatRoomId
p474
I0
sVHideInputBarFlag
p475
I0
sVEncryChatRoomId
p476
g50
sVAttrStatus
p477
I0
sVSnsFlag
p478
I0
sVMemberCount
p479
I0
sVOwnerUin
p480
I0
sVAlias
p481
g50
sg297
NsVSignature
p482
g50
sVContactFlag
p483
I1
sVNickName
p484
VAuckland Data Science Lovers
p485
sVRemarkPYQuanPin
p486
g50
sVHeadImgUrl
p487
V/cgi-bin/mmwebwx-bin/webwxgetheadimg?seq=637731878&username=@@b25719f7f1b05f80def7348466670f2ea6e8efa953750339b7a81843d3210bf1&skey=@crypt_936d9d3e_72ed00fb31660af57dbba92b17b362a2
p488
sVUin
p489
I0
sVStarFriend
p490
I0
sVStatues
p491
I0
stp492
Rp493
I1
bag34
(g261
g39
(dp494
VUserName
p495
V@@af0975bd06396b96ca0cd11bcfa552b4f3cc7f3187164f95184cc172a09f5d33
p496
sVCity
p497
g50
sVDisplayName
p498
g50
sVUniFriend
p499
I0
sg268
g34
(g38
g39
(dp500
g41
g31
sg42
g43
sg44
g43
sg45
I0
sg46
I0
sg47
(lp501
sg49
g50
sg51
g50
sg52
I2966625951
sg53
I0
sg54
I0
sg55
g43
sg56
g43
sg57
g50
sg58
g50
sg59
I0
sg60
I0
sg61
I1
sg62
g43
sg63
I0
sg64
I0
sg65
I0
sg66
I0
sg67
g43
sg68
g69
sg70
I0
sg71
g72
sg73
g50
sg74
g75
sg76
I2
sg77
I0
sg78
I0
stp502
Rp503
I1
bsVMemberList
p504
g34
(g35
g36
(lp505
tp506
Rp507
I1
bsVPYQuanPin
p508
VkudoupeiliaomeiUATS
p509
sVRemarkPYInitial
p510
g50
sVSex
p511
I0
sVAppAccountFlag
p512
I0
sVVerifyFlag
p513
I0
sVProvince
p514
g50
sVKeyWord
p515
g50
sVRemarkName
p516
g50
sVPYInitial
p517
VKDPLMUATS
p518
sVIsOwner
p519
I1
sVChatRoomId
p520
I0
sVHideInputBarFlag
p521
I0
sVEncryChatRoomId
p522
g50
sVAttrStatus
p523
I0
sVSnsFlag
p524
I0
sVMemberCount
p525
I0
sVOwnerUin
p526
I0
sVAlias
p527
g50
sg297
NsVSignature
p528
g50
sVContactFlag
p529
I3
sVNickName
p530
V\u9177\u8c46\u966a\u804a\u59b9UAT-S
p531
sVRemarkPYQuanPin
p532
g50
sVHeadImgUrl
p533
V/cgi-bin/mmwebwx-bin/webwxgetheadimg?seq=637734542&username=@@af0975bd06396b96ca0cd11bcfa552b4f3cc7f3187164f95184cc172a09f5d33&skey=@crypt_936d9d3e_72ed00fb31660af57dbba92b17b362a2
p534
sVUin
p535
I0
sVStarFriend
p536
I0
sVStatues
p537
I1
stp538
Rp539
I1
bag34
(g261
g39
(dp540
VUserName
p541
V@@9ea84e93a9132572ed91ec5c5b9df7885782f904abb820d14562f7ef62a0ed3a
p542
sVCity
p543
g50
sVDisplayName
p544
g50
sVUniFriend
p545
I0
sg268
g34
(g38
g39
(dp546
g41
g31
sg42
g43
sg44
g43
sg45
I0
sg46
I0
sg47
(lp547
sg49
g50
sg51
g50
sg52
I2966625951
sg53
I0
sg54
I0
sg55
g43
sg56
g43
sg57
g50
sg58
g50
sg59
I0
sg60
I0
sg61
I1
sg62
g43
sg63
I0
sg64
I0
sg65
I0
sg66
I0
sg67
g43
sg68
g69
sg70
I0
sg71
g72
sg73
g50
sg74
g75
sg76
I2
sg77
I0
sg78
I0
stp548
Rp549
I1
bsVMemberList
p550
g34
(g35
g36
(lp551
tp552
Rp553
I1
bsVPYQuanPin
p554
VkudoupeiliaomeiUATR
p555
sVRemarkPYInitial
p556
g50
sVSex
p557
I0
sVAppAccountFlag
p558
I0
sVVerifyFlag
p559
I0
sVProvince
p560
g50
sVKeyWord
p561
g50
sVRemarkName
p562
g50
sVPYInitial
p563
VKDPLMUATR
p564
sVIsOwner
p565
I1
sVChatRoomId
p566
I0
sVHideInputBarFlag
p567
I0
sVEncryChatRoomId
p568
g50
sVAttrStatus
p569
I0
sVSnsFlag
p570
I0
sVMemberCount
p571
I0
sVOwnerUin
p572
I0
sVAlias
p573
g50
sg297
NsVSignature
p574
g50
sVContactFlag
p575
I1
sVNickName
p576
V\u9177\u8c46\u966a\u804a\u59b9UAT-R
p577
sVRemarkPYQuanPin
p578
g50
sVHeadImgUrl
p579
V/cgi-bin/mmwebwx-bin/webwxgetheadimg?seq=637732177&username=@@9ea84e93a9132572ed91ec5c5b9df7885782f904abb820d14562f7ef62a0ed3a&skey=@crypt_936d9d3e_72ed00fb31660af57dbba92b17b362a2
p580
sVUin
p581
I0
sVStarFriend
p582
I0
sVStatues
p583
I0
stp584
Rp585
I1
batp586
Rp587
I1
bsS'nickName'
p588
g72
sS'mpList'
p589
g34
(g35
g36
(lp590
tp591
Rp592
I1
bssS'loginInfo'
p593
(dp594
S'SyncKey'
p595
(dp596
VCount
p597
I4
sVList
p598
(lp599
(dp600
VVal
p601
I637735017
sVKey
p602
I1
sa(dp603
VVal
p604
I637735268
sVKey
p605
I2
sa(dp606
VVal
p607
I637735269
sVKey
p608
I3
sa(dp609
VVal
p610
I1498732022
sVKey
p611
I1000
sassS'syncUrl'
p612
S'https://webpush.web.wechat.com/cgi-bin/mmwebwx-bin'
p613
sS'skey'
p614
V@crypt_936d9d3e_72ed00fb31660af57dbba92b17b362a2
p615
sS'wxuin'
p616
V2966625951
p617
sS'synckey'
p618
S'1_637735017|2_637735268|3_637735269|1000_1498732022'
p619
sS'url'
p620
Vhttps://web.wechat.com/cgi-bin/mmwebwx-bin
p621
sS'pass_ticket'
p622
VpuEGcS2HX0IFKcsF8lZnvin0eB3%2BBtO6CicY5xF3CCvXkSqxj468Gh1Br68CVxco
p623
sS'wxsid'
p624
Vuis1dIg5AgMBpa0Z
p625
sS'InviteStartCount'
p626
I40
sS'deviceid'
p627
S'e246965348959128'
p628
sS'fileUrl'
p629
S'https://file.web.wechat.com/cgi-bin/mmwebwx-bin'
p630
sS'BaseRequest'
p631
(dp632
g52
g617
sS'Skey'
p633
g615
sS'DeviceID'
p634
g623
sS'Sid'
p635
g625
ssS'User'
p636
g34
(g38
g39
(dp637
g41
g31
sg42
g43
sg44
g43
sg45
I0
sg47
g48
sg49
g50
sg51
g50
sg76
I2
sg53
I0
sg54
I0
sg55
g43
sg56
g43
sg57
g50
sg58
g50
sg59
I0
sg60
I0
sg61
I1
sg62
g43
sg63
I0
sg66
I0
sg64
I0
sg65
I0
sg46
I0
sg67
g43
sg68
g69
sg70
I0
sg71
g72
sg73
g50
sg74
g75
sg52
I2966625951
sg77
I0
sg78
I0
stp638
Rp639
I1
bss.